target datalayout = "e-m:e-p270:32:32-p271:32:32-p272:64:64-i64:64-i128:128-f80:128-n8:16:32:64-S128"
target triple = "x86_64-pc-linux-gnu"

@.str.16 = private unnamed_addr constant [7 x i8] c"legacy\00", align 1
@default_libctx = internal global i32 1, align 4
@testctx = internal global ptr null, align 8
@.str.20 = private unnamed_addr constant [37 x i8] c"../openssl/test/pkcs12_format_test.c\00", align 1
@.str.21 = private unnamed_addr constant [8 x i8] c"testctx\00", align 1
@.str.22 = private unnamed_addr constant [5 x i8] c"null\00", align 1
@nullprov = internal global ptr null, align 8
@.str.23 = private unnamed_addr constant [9 x i8] c"nullprov\00", align 1
@.str.24 = private unnamed_addr constant [8 x i8] c"default\00", align 1
@deflprov = internal global ptr null, align 8
@.str.25 = private unnamed_addr constant [9 x i8] c"deflprov\00", align 1
@lgcyprov = internal global ptr null, align 8
@.str.26 = private unnamed_addr constant [41 x i8] c"OSSL_PROVIDER_available(NULL, \22default\22)\00", align 1
@.str.27 = private unnamed_addr constant [38 x i8] c"OSSL_PROVIDER_available(NULL, \22fips\22)\00", align 1
@.str.28 = private unnamed_addr constant [5 x i8] c"fips\00", align 1
@.str.29 = private unnamed_addr constant [26 x i8] c"test_single_cert_no_attrs\00", align 1
@.str.30 = private unnamed_addr constant [24 x i8] c"test_single_key_enc_alg\00", align 1
@.str.31 = private unnamed_addr constant [27 x i8] c"test_single_secret_enc_alg\00", align 1
@.str.32 = private unnamed_addr constant [19 x i8] c"pkcs12_create_test\00", align 1
@.str.33 = private unnamed_addr constant [21 x i8] c"pkcs12_recreate_test\00", align 1
@.str.34 = private unnamed_addr constant [25 x i8] c"test_single_key_enc_pass\00", align 1
@.str.35 = private unnamed_addr constant [25 x i8] c"test_single_key_enc_iter\00", align 1
@.str.36 = private unnamed_addr constant [27 x i8] c"test_single_key_with_attrs\00", align 1
@.str.37 = private unnamed_addr constant [25 x i8] c"test_single_cert_mac_alg\00", align 1
@.str.38 = private unnamed_addr constant [26 x i8] c"test_single_cert_mac_pass\00", align 1
@.str.39 = private unnamed_addr constant [26 x i8] c"test_single_cert_mac_iter\00", align 1
@.str.40 = private unnamed_addr constant [33 x i8] c"test_cert_key_with_attrs_and_mac\00", align 1
@.str.41 = private unnamed_addr constant [32 x i8] c"test_cert_key_encrypted_content\00", align 1
@.str.42 = private unnamed_addr constant [37 x i8] c"test_single_secret_encrypted_content\00", align 1
@.str.43 = private unnamed_addr constant [23 x i8] c"test_multiple_contents\00", align 1
@.str.44 = private unnamed_addr constant [22 x i8] c"test_jdk_trusted_attr\00", align 1
@.str.45 = private unnamed_addr constant [16 x i8] c"test_set0_attrs\00", align 1

; Function Attrs: nounwind uwtable
define dso_local i32 @setup_tests() #0 {
  %1 = alloca i32, align 4
  %2 = alloca i32, align 4
  %3 = alloca i32, align 4
  call void @llvm.lifetime.start.p0(i64 4, ptr %2) #4
  br label %4

4:                                                ; preds = %14, %0
  %5 = call i32 @opt_next()
  store i32 %5, ptr %2, align 4, !tbaa !4
  %6 = icmp ne i32 %5, 0
  br i1 %6, label %7, label %15

7:                                                ; preds = %4
  %8 = load i32, ptr %2, align 4, !tbaa !4
  switch i32 %8, label %13 [
    i32 1, label %9
    i32 2, label %10
    i32 3, label %11
    i32 500, label %12
    i32 501, label %12
    i32 502, label %12
    i32 503, label %12
    i32 504, label %12
    i32 505, label %12
  ]

9:                                                ; preds = %7
  call void @PKCS12_helper_set_write_files(i32 noundef 1)
  br label %14

10:                                               ; preds = %7
  call void @PKCS12_helper_set_legacy(i32 noundef 1)
  br label %14

11:                                               ; preds = %7
  store i32 0, ptr @default_libctx, align 4, !tbaa !4
  br label %14

12:                                               ; preds = %7, %7, %7, %7, %7, %7
  br label %14

13:                                               ; preds = %7
  store i32 0, ptr %1, align 4
  store i32 1, ptr %3, align 4
  br label %72

14:                                               ; preds = %12, %11, %10, %9
  br label %4, !llvm.loop !8

15:                                               ; preds = %4
  %16 = load i32, ptr @default_libctx, align 4, !tbaa !4
  %17 = icmp ne i32 %16, 0
  br i1 %17, label %31, label %18

18:                                               ; preds = %15
  %19 = call ptr @OSSL_LIB_CTX_new()
  store ptr %19, ptr @testctx, align 8, !tbaa !10
  %20 = load ptr, ptr @testctx, align 8, !tbaa !10
  %21 = call i32 @test_ptr(ptr noundef @.str.20, i32 noundef 993, ptr noundef @.str.21, ptr noundef %20)
  %22 = icmp ne i32 %21, 0
  br i1 %22, label %24, label %23

23:                                               ; preds = %18
  store i32 0, ptr %1, align 4
  store i32 1, ptr %3, align 4
  br label %72

24:                                               ; preds = %18
  %25 = call ptr @OSSL_PROVIDER_load(ptr noundef null, ptr noundef @.str.22)
  store ptr %25, ptr @nullprov, align 8, !tbaa !13
  %26 = load ptr, ptr @nullprov, align 8, !tbaa !13
  %27 = call i32 @test_ptr(ptr noundef @.str.20, i32 noundef 996, ptr noundef @.str.23, ptr noundef %26)
  %28 = icmp ne i32 %27, 0
  br i1 %28, label %30, label %29

29:                                               ; preds = %24
  store i32 0, ptr %1, align 4
  store i32 1, ptr %3, align 4
  br label %72

30:                                               ; preds = %24
  br label %31

31:                                               ; preds = %30, %15
  %32 = load ptr, ptr @testctx, align 8, !tbaa !10
  %33 = call ptr @OSSL_PROVIDER_load(ptr noundef %32, ptr noundef @.str.24)
  store ptr %33, ptr @deflprov, align 8, !tbaa !13
  %34 = load ptr, ptr @deflprov, align 8, !tbaa !13
  %35 = call i32 @test_ptr(ptr noundef @.str.20, i32 noundef 1001, ptr noundef @.str.25, ptr noundef %34)
  %36 = icmp ne i32 %35, 0
  br i1 %36, label %38, label %37

37:                                               ; preds = %31
  store i32 0, ptr %1, align 4
  store i32 1, ptr %3, align 4
  br label %72

38:                                               ; preds = %31
  %39 = load ptr, ptr @testctx, align 8, !tbaa !10
  %40 = call ptr @OSSL_PROVIDER_load(ptr noundef %39, ptr noundef @.str.16)
  store ptr %40, ptr @lgcyprov, align 8, !tbaa !13
  %41 = load ptr, ptr @testctx, align 8, !tbaa !10
  call void @PKCS12_helper_set_libctx(ptr noundef %41)
  %42 = load i32, ptr @default_libctx, align 4, !tbaa !4
  %43 = icmp ne i32 %42, 0
  br i1 %43, label %58, label %44

44:                                               ; preds = %38
  %45 = call i32 @OSSL_PROVIDER_available(ptr noundef null, ptr noundef @.str.24)
  %46 = icmp ne i32 %45, 0
  %47 = zext i1 %46 to i32
  %48 = call i32 @test_false(ptr noundef @.str.20, i32 noundef 1012, ptr noundef @.str.26, i32 noundef %47)
  %49 = icmp ne i32 %48, 0
  br i1 %49, label %50, label %56

50:                                               ; preds = %44
  %51 = call i32 @OSSL_PROVIDER_available(ptr noundef null, ptr noundef @.str.28)
  %52 = icmp ne i32 %51, 0
  %53 = zext i1 %52 to i32
  %54 = call i32 @test_false(ptr noundef @.str.20, i32 noundef 1013, ptr noundef @.str.27, i32 noundef %53)
  %55 = icmp ne i32 %54, 0
  br i1 %55, label %57, label %56

56:                                               ; preds = %50, %44
  store i32 0, ptr %1, align 4
  store i32 1, ptr %3, align 4
  br label %72

57:                                               ; preds = %50
  br label %58

58:                                               ; preds = %57, %38
  call void @add_test(ptr noundef @.str.29, ptr noundef @test_single_cert_no_attrs)
  %59 = load ptr, ptr @lgcyprov, align 8, !tbaa !13
  %60 = icmp eq ptr %59, null
  br i1 %60, label %61, label %62

61:                                               ; preds = %58
  call void @add_all_tests(ptr noundef @.str.30, ptr noundef @test_single_key_enc_alg, i32 noundef 5, i32 noundef 1)
  call void @add_all_tests(ptr noundef @.str.31, ptr noundef @test_single_secret_enc_alg, i32 noundef 5, i32 noundef 1)
  br label %63

62:                                               ; preds = %58
  call void @add_all_tests(ptr noundef @.str.30, ptr noundef @test_single_key_enc_alg, i32 noundef 16, i32 noundef 1)
  call void @add_all_tests(ptr noundef @.str.31, ptr noundef @test_single_secret_enc_alg, i32 noundef 16, i32 noundef 1)
  br label %63

63:                                               ; preds = %62, %61
  %64 = load i32, ptr @default_libctx, align 4, !tbaa !4
  %65 = icmp ne i32 %64, 0
  br i1 %65, label %66, label %67

66:                                               ; preds = %63
  call void @add_test(ptr noundef @.str.32, ptr noundef @pkcs12_create_test)
  br label %67

67:                                               ; preds = %66, %63
  %68 = load i32, ptr @default_libctx, align 4, !tbaa !4
  %69 = icmp ne i32 %68, 0
  br i1 %69, label %70, label %71

70:                                               ; preds = %67
  call void @add_test(ptr noundef @.str.33, ptr noundef @pkcs12_recreate_test)
  br label %71

71:                                               ; preds = %70, %67
  call void @add_all_tests(ptr noundef @.str.34, ptr noundef @test_single_key_enc_pass, i32 noundef 2, i32 noundef 1)
  call void @add_all_tests(ptr noundef @.str.35, ptr noundef @test_single_key_enc_iter, i32 noundef 2, i32 noundef 1)
  call void @add_test(ptr noundef @.str.36, ptr noundef @test_single_key_with_attrs)
  call void @add_all_tests(ptr noundef @.str.37, ptr noundef @test_single_cert_mac_alg, i32 noundef 6, i32 noundef 1)
  call void @add_all_tests(ptr noundef @.str.38, ptr noundef @test_single_cert_mac_pass, i32 noundef 2, i32 noundef 1)
  call void @add_all_tests(ptr noundef @.str.39, ptr noundef @test_single_cert_mac_iter, i32 noundef 2, i32 noundef 1)
  call void @add_test(ptr noundef @.str.40, ptr noundef @test_cert_key_with_attrs_and_mac)
  call void @add_test(ptr noundef @.str.41, ptr noundef @test_cert_key_encrypted_content)
  call void @add_test(ptr noundef @.str.42, ptr noundef @test_single_secret_encrypted_content)
  call void @add_test(ptr noundef @.str.43, ptr noundef @test_multiple_contents)
  call void @add_test(ptr noundef @.str.44, ptr noundef @test_jdk_trusted_attr)
  call void @add_test(ptr noundef @.str.45, ptr noundef @test_set0_attrs)
  store i32 1, ptr %1, align 4
  store i32 1, ptr %3, align 4
  br label %72

72:                                               ; preds = %71, %56, %37, %29, %23, %13
  call void @llvm.lifetime.end.p0(i64 4, ptr %2) #4
  %73 = load i32, ptr %1, align 4
  ret i32 %73
}