; Function Attrs: nounwind uwtable
define dso_local range(i32 0, 2) i32 @setup_tests() local_unnamed_addr #1 {
  br label %1

1:                                                ; preds = %.backedge, %0
  %2 = tail call i32 @opt_next() #4
  switch i32 %2, label %.loopexit [
    i32 0, label %6
    i32 1, label %3
    i32 2, label %4
    i32 3, label %5
    i32 500, label %.backedge
    i32 501, label %.backedge
    i32 502, label %.backedge
    i32 503, label %.backedge
    i32 504, label %.backedge
    i32 505, label %.backedge
  ]

.backedge:                                        ; preds = %1, %1, %1, %1, %1, %1, %5, %4, %3
  br label %1, !llvm.loop !4

3:                                                ; preds = %1
  tail call void @PKCS12_helper_set_write_files(i32 noundef 1) #4
  br label %.backedge

4:                                                ; preds = %1
  tail call void @PKCS12_helper_set_legacy(i32 noundef 1) #4
  br label %.backedge

5:                                                ; preds = %1
  store i1 true, ptr @default_libctx, align 4
  br label %.backedge

6:                                                ; preds = %1
  %.b5 = load i1, ptr @default_libctx, align 4
  br i1 %.b5, label %7, label %13

7:                                                ; preds = %6
  %8 = tail call ptr @OSSL_LIB_CTX_new() #4
  store ptr %8, ptr @testctx, align 8, !tbaa !6
  %9 = tail call i32 @test_ptr(ptr noundef nonnull @.str.20, i32 noundef 993, ptr noundef nonnull @.str.21, ptr noundef %8) #4
  %.not6 = icmp eq i32 %9, 0
  br i1 %.not6, label %.loopexit, label %10

10:                                               ; preds = %7
  %11 = tail call ptr @OSSL_PROVIDER_load(ptr noundef null, ptr noundef nonnull @.str.22) #4
  store ptr %11, ptr @nullprov, align 8, !tbaa !11
  %12 = tail call i32 @test_ptr(ptr noundef nonnull @.str.20, i32 noundef 996, ptr noundef nonnull @.str.23, ptr noundef %11) #4
  %.not7 = icmp eq i32 %12, 0
  br i1 %.not7, label %.loopexit, label %13

13:                                               ; preds = %10, %6
  %14 = load ptr, ptr @testctx, align 8, !tbaa !6
  %15 = tail call ptr @OSSL_PROVIDER_load(ptr noundef %14, ptr noundef nonnull @.str.24) #4
  store ptr %15, ptr @deflprov, align 8, !tbaa !11
  %16 = tail call i32 @test_ptr(ptr noundef nonnull @.str.20, i32 noundef 1001, ptr noundef nonnull @.str.25, ptr noundef %15) #4
  %.not8 = icmp eq i32 %16, 0
  br i1 %.not8, label %.loopexit, label %17

17:                                               ; preds = %13
  %18 = load ptr, ptr @testctx, align 8, !tbaa !6
  %19 = tail call ptr @OSSL_PROVIDER_load(ptr noundef %18, ptr noundef nonnull @.str.16) #4
  store ptr %19, ptr @lgcyprov, align 8, !tbaa !11
  %20 = load ptr, ptr @testctx, align 8, !tbaa !6
  tail call void @PKCS12_helper_set_libctx(ptr noundef %20) #4
  %.b4 = load i1, ptr @default_libctx, align 4
  br i1 %.b4, label %21, label %31

21:                                               ; preds = %17
  %22 = tail call i32 @OSSL_PROVIDER_available(ptr noundef null, ptr noundef nonnull @.str.24) #4
  %23 = icmp ne i32 %22, 0
  %24 = zext i1 %23 to i32
  %25 = tail call i32 @test_false(ptr noundef nonnull @.str.20, i32 noundef 1012, ptr noundef nonnull @.str.26, i32 noundef %24) #4
  %.not9 = icmp eq i32 %25, 0
  br i1 %.not9, label %.loopexit, label %26

26:                                               ; preds = %21
  %27 = tail call i32 @OSSL_PROVIDER_available(ptr noundef null, ptr noundef nonnull @.str.28) #4
  %28 = icmp ne i32 %27, 0
  %29 = zext i1 %28 to i32
  %30 = tail call i32 @test_false(ptr noundef nonnull @.str.20, i32 noundef 1013, ptr noundef nonnull @.str.27, i32 noundef %29) #4
  %.not10 = icmp eq i32 %30, 0
  br i1 %.not10, label %.loopexit, label %31

31:                                               ; preds = %26, %17
  tail call void @add_test(ptr noundef nonnull @.str.29, ptr noundef nonnull @test_single_cert_no_attrs) #4
  %32 = load ptr, ptr @lgcyprov, align 8, !tbaa !11
  %33 = icmp eq ptr %32, null
  %. = select i1 %33, i32 5, i32 16
  tail call void @add_all_tests(ptr noundef nonnull @.str.30, ptr noundef nonnull @test_single_key_enc_alg, i32 noundef %., i32 noundef 1) #4
  tail call void @add_all_tests(ptr noundef nonnull @.str.31, ptr noundef nonnull @test_single_secret_enc_alg, i32 noundef %., i32 noundef 1) #4
  %.b3 = load i1, ptr @default_libctx, align 4
  br i1 %.b3, label %.thread, label %34

34:                                               ; preds = %31
  tail call void @add_test(ptr noundef nonnull @.str.32, ptr noundef nonnull @pkcs12_create_test) #4
  %.b.pr = load i1, ptr @default_libctx, align 4
  br i1 %.b.pr, label %.thread, label %35

35:                                               ; preds = %34
  tail call void @add_test(ptr noundef nonnull @.str.33, ptr noundef nonnull @pkcs12_recreate_test) #4
  br label %.thread

.thread:                                          ; preds = %31, %35, %34
  tail call void @add_all_tests(ptr noundef nonnull @.str.34, ptr noundef nonnull @test_single_key_enc_pass, i32 noundef 2, i32 noundef 1) #4
  tail call void @add_all_tests(ptr noundef nonnull @.str.35, ptr noundef nonnull @test_single_key_enc_iter, i32 noundef 2, i32 noundef 1) #4
  tail call void @add_test(ptr noundef nonnull @.str.36, ptr noundef nonnull @test_single_key_with_attrs) #4
  tail call void @add_all_tests(ptr noundef nonnull @.str.37, ptr noundef nonnull @test_single_cert_mac_alg, i32 noundef 6, i32 noundef 1) #4
  tail call void @add_all_tests(ptr noundef nonnull @.str.38, ptr noundef nonnull @test_single_cert_mac_pass, i32 noundef 2, i32 noundef 1) #4
  tail call void @add_all_tests(ptr noundef nonnull @.str.39, ptr noundef nonnull @test_single_cert_mac_iter, i32 noundef 2, i32 noundef 1) #4
  tail call void @add_test(ptr noundef nonnull @.str.40, ptr noundef nonnull @test_cert_key_with_attrs_and_mac) #4
  tail call void @add_test(ptr noundef nonnull @.str.41, ptr noundef nonnull @test_cert_key_encrypted_content) #4
  tail call void @add_test(ptr noundef nonnull @.str.42, ptr noundef nonnull @test_single_secret_encrypted_content) #4
  tail call void @add_test(ptr noundef nonnull @.str.43, ptr noundef nonnull @test_multiple_contents) #4
  tail call void @add_test(ptr noundef nonnull @.str.44, ptr noundef nonnull @test_jdk_trusted_attr) #4
  tail call void @add_test(ptr noundef nonnull @.str.45, ptr noundef nonnull @test_set0_attrs) #4
  br label %.loopexit

.loopexit:                                        ; preds = %1, %21, %26, %13, %10, %7, %.thread
  %.0 = phi i32 [ 1, %.thread ], [ 0, %7 ], [ 0, %10 ], [ 0, %13 ], [ 0, %26 ], [ 0, %21 ], [ 0, %1 ]
  ret i32 %.0
}